target datalayout = "e-m:e-p270:32:32-p271:32:32-p272:64:64-i64:64-i128:128-f80:128-n8:16:32:64-S128"
target triple = "x86_64-pc-linux-gnu"

@H5G_init_g = external global i8, align 1
@H5_libterm_g = external global i8, align 1
@.str = private unnamed_addr constant [100 x i8] c"generated/home/dtcxzyw/WorkSpace/Projects/compilers/llvm-opt-benchmark/bench/hdf5/hdf5/src/H5Gloc.c\00", align 1
@H5E_FUNC_g = external global i64, align 8
@H5E_CANTINIT_g = external global i64, align 8
@.str.1 = private unnamed_addr constant [32 x i8] c"interface initialization failed\00", align 1
@H5E_ARGS_g = external global i64, align 8
@__func__.H5G_loc = private unnamed_addr constant [8 x i8] c"H5G_loc\00", align 1
@H5E_BADTYPE_g = external global i64, align 8
@.str.20 = private unnamed_addr constant [28 x i8] c"invalid location identifier\00", align 1
@.str.21 = private unnamed_addr constant [34 x i8] c"unable to fill in location struct\00", align 1

; Function Attrs: nounwind uwtable
define i32 @H5G_loc(i64 noundef %0, ptr noundef %1) #0 {
  %3 = alloca i64, align 8
  %4 = alloca ptr, align 8
  %5 = alloca ptr, align 8
  %6 = alloca i32, align 4
  %7 = alloca i8, align 1
  store i64 %0, ptr %3, align 8, !tbaa !15
  store ptr %1, ptr %4, align 8, !tbaa !9
  call void @llvm.lifetime.start.p0(i64 8, ptr %5) #7
  store ptr null, ptr %5, align 8, !tbaa !3
  call void @llvm.lifetime.start.p0(i64 4, ptr %6) #7
  store i32 0, ptr %6, align 4, !tbaa !7
  call void @llvm.lifetime.start.p0(i64 1, ptr %7) #7
  store i8 0, ptr %7, align 1, !tbaa !11
  %8 = load i8, ptr @H5G_init_g, align 1, !tbaa !11, !range !13, !noundef !14
  %9 = trunc i8 %8 to i1
  br i1 %9, label %14, label %10

10:                                               ; preds = %2
  %11 = load i8, ptr @H5_libterm_g, align 1, !tbaa !11, !range !13, !noundef !14
  %12 = trunc i8 %11 to i1
  %13 = xor i1 %12, true
  br label %14

14:                                               ; preds = %10, %2
  %15 = phi i1 [ false, %2 ], [ %13, %10 ]
  %16 = xor i1 %15, true
  %17 = xor i1 %16, true
  %18 = zext i1 %17 to i32
  %19 = sext i32 %18 to i64
  %20 = call i64 @llvm.expect.i64(i64 %19, i64 0)
  %21 = icmp ne i64 %20, 0
  br i1 %21, label %22, label %45

22:                                               ; preds = %14
  store i8 1, ptr @H5G_init_g, align 1, !tbaa !11
  %23 = call i32 @H5G__init_package()
  %24 = icmp slt i32 %23, 0
  br i1 %24, label %25, label %44

25:                                               ; preds = %22
  store i8 0, ptr @H5G_init_g, align 1, !tbaa !11
  br label %26

26:                                               ; preds = %25
  br label %27

27:                                               ; preds = %26
  br label %28

28:                                               ; preds = %27
  %29 = load i64, ptr @H5E_FUNC_g, align 8, !tbaa !15
  %30 = load i64, ptr @H5E_CANTINIT_g, align 8, !tbaa !15
  %31 = call i32 (ptr, ptr, i32, i64, i64, ptr, ...) @H5E_printf_stack(ptr noundef @.str, ptr noundef @__func__.H5G_loc, i32 noundef 258, i64 noundef %29, i64 noundef %30, ptr noundef @.str.1)
  br label %32

32:                                               ; preds = %28
  br label %33

33:                                               ; preds = %32
  store i8 1, ptr %7, align 1, !tbaa !11
  %34 = load i8, ptr %7, align 1, !tbaa !11, !range !13, !noundef !14
  %35 = trunc i8 %34 to i1
  %36 = zext i1 %35 to i8
  store i8 %36, ptr %7, align 1, !tbaa !11
  br label %37

37:                                               ; preds = %33
  br label %38

38:                                               ; preds = %37
  br label %39

39:                                               ; preds = %38
  store i32 -1, ptr %6, align 4, !tbaa !7
  br label %110

40:                                               ; No predecessors!
  br label %41

41:                                               ; preds = %40
  br label %42

42:                                               ; preds = %41
  br label %43

43:                                               ; preds = %42
  br label %44

44:                                               ; preds = %43, %22
  br label %45

45:                                               ; preds = %44, %14
  %46 = load i8, ptr @H5G_init_g, align 1, !tbaa !11, !range !13, !noundef !14
  %47 = trunc i8 %46 to i1
  br i1 %47, label %52, label %48

48:                                               ; preds = %45
  %49 = load i8, ptr @H5_libterm_g, align 1, !tbaa !11, !range !13, !noundef !14
  %50 = trunc i8 %49 to i1
  %51 = xor i1 %50, true
  br label %52

52:                                               ; preds = %48, %45
  %53 = phi i1 [ true, %45 ], [ %51, %48 ]
  %54 = xor i1 %53, true
  %55 = xor i1 %54, true
  %56 = zext i1 %55 to i32
  %57 = sext i32 %56 to i64
  %58 = call i64 @llvm.expect.i64(i64 %57, i64 1)
  %59 = icmp ne i64 %58, 0
  br i1 %59, label %60, label %111

60:                                               ; preds = %52
  %61 = load i64, ptr %3, align 8, !tbaa !15
  %62 = call ptr @H5VL_object(i64 noundef %61)
  store ptr %62, ptr %5, align 8, !tbaa !3
  %63 = icmp eq ptr null, %62
  br i1 %63, label %64, label %83

64:                                               ; preds = %60
  br label %65

65:                                               ; preds = %64
  br label %66

66:                                               ; preds = %65
  br label %67

67:                                               ; preds = %66
  %68 = load i64, ptr @H5E_ARGS_g, align 8, !tbaa !15
  %69 = load i64, ptr @H5E_BADTYPE_g, align 8, !tbaa !15
  %70 = call i32 (ptr, ptr, i32, i64, i64, ptr, ...) @H5E_printf_stack(ptr noundef @.str, ptr noundef @__func__.H5G_loc, i32 noundef 262, i64 noundef %68, i64 noundef %69, ptr noundef @.str.20)
  br label %71

71:                                               ; preds = %67
  br label %72

72:                                               ; preds = %71
  store i8 1, ptr %7, align 1, !tbaa !11
  %73 = load i8, ptr %7, align 1, !tbaa !11, !range !13, !noundef !14
  %74 = trunc i8 %73 to i1
  %75 = zext i1 %74 to i8
  store i8 %75, ptr %7, align 1, !tbaa !11
  br label %76

76:                                               ; preds = %72
  br label %77

77:                                               ; preds = %76
  br label %78

78:                                               ; preds = %77
  store i32 -1, ptr %6, align 4, !tbaa !7
  br label %110

79:                                               ; No predecessors!
  br label %80

80:                                               ; preds = %79
  br label %81

81:                                               ; preds = %80
  br label %82

82:                                               ; preds = %81
  br label %83

83:                                               ; preds = %82, %60
  %84 = load ptr, ptr %5, align 8, !tbaa !3
  %85 = load i64, ptr %3, align 8, !tbaa !15
  %86 = call i32 @H5I_get_type(i64 noundef %85)
  %87 = load ptr, ptr %4, align 8, !tbaa !9
  %88 = call i32 @H5G_loc_real(ptr noundef %84, i32 noundef %86, ptr noundef %87)
  %89 = icmp slt i32 %88, 0
  br i1 %89, label %90, label %109

90:                                               ; preds = %83
  br label %91

91:                                               ; preds = %90
  br label %92

92:                                               ; preds = %91
  br label %93

93:                                               ; preds = %92
  %94 = load i64, ptr @H5E_ARGS_g, align 8, !tbaa !15
  %95 = load i64, ptr @H5E_BADTYPE_g, align 8, !tbaa !15
  %96 = call i32 (ptr, ptr, i32, i64, i64, ptr, ...) @H5E_printf_stack(ptr noundef @.str, ptr noundef @__func__.H5G_loc, i32 noundef 266, i64 noundef %94, i64 noundef %95, ptr noundef @.str.21)
  br label %97

97:                                               ; preds = %93
  br label %98

98:                                               ; preds = %97
  store i8 1, ptr %7, align 1, !tbaa !11
  %99 = load i8, ptr %7, align 1, !tbaa !11, !range !13, !noundef !14
  %100 = trunc i8 %99 to i1
  %101 = zext i1 %100 to i8
  store i8 %101, ptr %7, align 1, !tbaa !11
  br label %102

102:                                              ; preds = %98
  br label %103

103:                                              ; preds = %102
  br label %104

104:                                              ; preds = %103
  store i32 -1, ptr %6, align 4, !tbaa !7
  br label %110

105:                                              ; No predecessors!
  br label %106

106:                                              ; preds = %105
  br label %107

107:                                              ; preds = %106
  br label %108

108:                                              ; preds = %107
  br label %109

109:                                              ; preds = %108, %83
  br label %110

110:                                              ; preds = %109, %104, %78, %39
  br label %111

111:                                              ; preds = %110, %52
  %112 = load i32, ptr %6, align 4, !tbaa !7
  call void @llvm.lifetime.end.p0(i64 1, ptr %7) #7
  call void @llvm.lifetime.end.p0(i64 4, ptr %6) #7
  call void @llvm.lifetime.end.p0(i64 8, ptr %5) #7
  ret i32 %112
}