; Function Attrs: nounwind uwtable
define range(i32 -1, 1) i32 @H5G_loc(i64 noundef %0, ptr noundef %1) local_unnamed_addr #0 {
  %3 = load i8, ptr @H5G_init_g, align 1, !tbaa !3, !range !7, !noundef !8
  %4 = trunc nuw i8 %3 to i1
  %5 = load i8, ptr @H5_libterm_g, align 1, !range !7
  %6 = trunc nuw i8 %5 to i1
  %7 = select i1 %4, i1 true, i1 %6
  br i1 %7, label %15, label %8, !prof !9

8:                                                ; preds = %2
  store i8 1, ptr @H5G_init_g, align 1, !tbaa !3
  %9 = tail call i32 @H5G__init_package() #9
  %10 = icmp slt i32 %9, 0
  br i1 %10, label %11, label %._crit_edge

._crit_edge:                                      ; preds = %8
  %.pre = load i8, ptr @H5G_init_g, align 1, !tbaa !3, !range !7
  %.pre8 = load i8, ptr @H5_libterm_g, align 1, !range !7
  %.pre9 = trunc nuw i8 %.pre to i1
  %.pre10 = trunc nuw i8 %.pre8 to i1
  br label %15

11:                                               ; preds = %8
  store i8 0, ptr @H5G_init_g, align 1, !tbaa !3
  %12 = load i64, ptr @H5E_FUNC_g, align 8, !tbaa !10
  %13 = load i64, ptr @H5E_CANTINIT_g, align 8, !tbaa !10
  %14 = tail call i32 (ptr, ptr, i32, i64, i64, ptr, ...) @H5E_printf_stack(ptr noundef nonnull @.str, ptr noundef nonnull @__func__.H5G_loc, i32 noundef 258, i64 noundef %12, i64 noundef %13, ptr noundef nonnull @.str.1) #9
  br label %33

15:                                               ; preds = %._crit_edge, %2
  %.pre-phi11 = phi i1 [ %.pre10, %._crit_edge ], [ %6, %2 ]
  %.pre-phi = phi i1 [ %.pre9, %._crit_edge ], [ %4, %2 ]
  %16 = xor i1 %.pre-phi11, true
  %17 = select i1 %.pre-phi, i1 true, i1 %16
  br i1 %17, label %18, label %33, !prof !9

18:                                               ; preds = %15
  %19 = tail call ptr @H5VL_object(i64 noundef %0) #9
  %20 = icmp eq ptr %19, null
  br i1 %20, label %21, label %25

21:                                               ; preds = %18
  %22 = load i64, ptr @H5E_ARGS_g, align 8, !tbaa !10
  %23 = load i64, ptr @H5E_BADTYPE_g, align 8, !tbaa !10
  %24 = tail call i32 (ptr, ptr, i32, i64, i64, ptr, ...) @H5E_printf_stack(ptr noundef nonnull @.str, ptr noundef nonnull @__func__.H5G_loc, i32 noundef 262, i64 noundef %22, i64 noundef %23, ptr noundef nonnull @.str.20) #9
  br label %33

25:                                               ; preds = %18
  %26 = tail call i32 @H5I_get_type(i64 noundef %0) #9
  %27 = tail call i32 @H5G_loc_real(ptr noundef nonnull %19, i32 noundef %26, ptr noundef %1)
  %28 = icmp slt i32 %27, 0
  br i1 %28, label %29, label %33

29:                                               ; preds = %25
  %30 = load i64, ptr @H5E_ARGS_g, align 8, !tbaa !10
  %31 = load i64, ptr @H5E_BADTYPE_g, align 8, !tbaa !10
  %32 = tail call i32 (ptr, ptr, i32, i64, i64, ptr, ...) @H5E_printf_stack(ptr noundef nonnull @.str, ptr noundef nonnull @__func__.H5G_loc, i32 noundef 266, i64 noundef %30, i64 noundef %31, ptr noundef nonnull @.str.21) #9
  br label %33

33:                                               ; preds = %11, %21, %29, %25, %15
  %.0 = phi i32 [ -1, %11 ], [ -1, %21 ], [ -1, %29 ], [ 0, %25 ], [ 0, %15 ]
  ret i32 %.0
}